target datalayout = "e-m:e-p270:32:32-p271:32:32-p272:64:64-i64:64-i128:128-f80:128-n8:16:32:64-S128"
target triple = "x86_64-pc-linux-gnu"

%struct.expert_field = type { i32, i32 }
%struct._packet_info = type { ptr, ptr, i32, i32, %struct.nstime_t, %struct.nstime_t, %struct.nstime_t, i8, ptr, ptr, ptr, ptr, %struct._address, %struct._address, %struct._address, %struct._address, %struct._address, %struct._address, i32, ptr, i8, [3 x i8], %struct.anon, i32, i32, i32, i32, ptr, i8, ptr, ptr, i16, i16, i32, i32, i16, i32, i32, ptr, ptr, ptr, i8, i8, i16, i16, i16, i32, i16, i16, ptr, ptr, ptr, ptr, ptr, i32, i32 }
%struct.nstime_t = type { i64, i32 }
%struct._address = type { i32, i32, ptr, ptr }
%struct.anon = type { i8, [3 x i8] }

@hf_PCEPF_SUBOBJ_7F = internal global i32 0, align 4
@hf_PCEPF_SUBOBJ_PKSv4 = internal global i32 0, align 4
@hf_pcep_subobj_pksv4_length = internal global i32 0, align 4
@hf_pcep_subobj_pksv4_path_key = internal global i32 0, align 4
@hf_pcep_subobj_pksv4_pce_id = internal global i32 0, align 4
@hf_pcep_subobj_pksv4_l = internal global i32 0, align 4
@ei_pcep_subobject_bad_length = internal global %struct.expert_field zeroinitializer, align 4
@.str.1163 = private unnamed_addr constant [39 x i8] c"Bad path key subobject: length %u != 8\00", align 1
@.str.1164 = private unnamed_addr constant [18 x i8] c": %s, Path Key %u\00", align 1

; Function Attrs: null_pointer_is_valid sspstrong uwtable
define internal void @dissect_subobj_pksv4(ptr noundef %0, ptr noundef %1, ptr noundef %2, i32 noundef %3, i32 noundef %4, i32 noundef %5) #0 {
  %7 = alloca ptr, align 8
  %8 = alloca ptr, align 8
  %9 = alloca ptr, align 8
  %10 = alloca i32, align 4
  %11 = alloca i32, align 4
  %12 = alloca i32, align 4
  %13 = alloca ptr, align 8
  %14 = alloca ptr, align 8
  %15 = alloca i16, align 2
  %16 = alloca i32, align 4
  store ptr %0, ptr %7, align 8
  store ptr %1, ptr %8, align 8
  store ptr %2, ptr %9, align 8
  store i32 %3, ptr %10, align 4
  store i32 %4, ptr %11, align 4
  store i32 %5, ptr %12, align 4
  call void @llvm.lifetime.start.p0(i64 8, ptr %13) #4
  call void @llvm.lifetime.start.p0(i64 8, ptr %14) #4
  call void @llvm.lifetime.start.p0(i64 2, ptr %15) #4
  %17 = load ptr, ptr %7, align 8
  %18 = load i32, ptr @hf_PCEPF_SUBOBJ_PKSv4, align 4
  %19 = load ptr, ptr %9, align 8
  %20 = load i32, ptr %10, align 4
  %21 = load i32, ptr %12, align 4
  %22 = call ptr @proto_tree_add_item(ptr noundef %17, i32 noundef %18, ptr noundef %19, i32 noundef %20, i32 noundef %21, i32 noundef 0)
  store ptr %22, ptr %14, align 8
  %23 = load ptr, ptr %14, align 8
  %24 = load i32, ptr %11, align 4
  %25 = call ptr @proto_item_add_subtree(ptr noundef %23, i32 noundef %24)
  store ptr %25, ptr %13, align 8
  %26 = load i32, ptr %12, align 4
  %27 = icmp ne i32 %26, 8
  br i1 %27, label %28, label %33

28:                                               ; preds = %6
  %29 = load ptr, ptr %8, align 8
  %30 = load ptr, ptr %14, align 8
  %31 = load i32, ptr %12, align 4
  %32 = call ptr (ptr, ptr, ptr, ptr, ...) @expert_add_info_format(ptr noundef %29, ptr noundef %30, ptr noundef @ei_pcep_subobject_bad_length, ptr noundef @.str.1163, i32 noundef %31)
  store i32 1, ptr %16, align 4
  br label %76

33:                                               ; preds = %6
  %34 = load ptr, ptr %9, align 8
  %35 = load i32, ptr %10, align 4
  %36 = add i32 %35, 2
  %37 = call zeroext i16 @tvb_get_ntohs(ptr noundef %34, i32 noundef %36)
  store i16 %37, ptr %15, align 2
  %38 = load ptr, ptr %14, align 8
  %39 = load ptr, ptr %8, align 8
  %40 = getelementptr inbounds nuw %struct._packet_info, ptr %39, i32 0, i32 51
  %41 = load ptr, ptr %40, align 8
  %42 = load ptr, ptr %9, align 8
  %43 = load i32, ptr %10, align 4
  %44 = add i32 %43, 4
  %45 = call ptr @tvb_address_to_str(ptr noundef %41, ptr noundef %42, i32 noundef 2, i32 noundef %44)
  %46 = load i16, ptr %15, align 2
  %47 = zext i16 %46 to i32
  call void (ptr, ptr, ...) @proto_item_append_text(ptr noundef %38, ptr noundef @.str.1164, ptr noundef %45, i32 noundef %47)
  %48 = load ptr, ptr %13, align 8
  %49 = load i32, ptr @hf_pcep_subobj_pksv4_l, align 4
  %50 = load ptr, ptr %9, align 8
  %51 = load i32, ptr %10, align 4
  %52 = call ptr @proto_tree_add_item(ptr noundef %48, i32 noundef %49, ptr noundef %50, i32 noundef %51, i32 noundef 1, i32 noundef 0)
  %53 = load ptr, ptr %13, align 8
  %54 = load i32, ptr @hf_PCEPF_SUBOBJ_7F, align 4
  %55 = load ptr, ptr %9, align 8
  %56 = load i32, ptr %10, align 4
  %57 = call ptr @proto_tree_add_item(ptr noundef %53, i32 noundef %54, ptr noundef %55, i32 noundef %56, i32 noundef 1, i32 noundef 0)
  %58 = load ptr, ptr %13, align 8
  %59 = load i32, ptr @hf_pcep_subobj_pksv4_length, align 4
  %60 = load ptr, ptr %9, align 8
  %61 = load i32, ptr %10, align 4
  %62 = add i32 %61, 1
  %63 = call ptr @proto_tree_add_item(ptr noundef %58, i32 noundef %59, ptr noundef %60, i32 noundef %62, i32 noundef 1, i32 noundef 0)
  %64 = load ptr, ptr %13, align 8
  %65 = load i32, ptr @hf_pcep_subobj_pksv4_path_key, align 4
  %66 = load ptr, ptr %9, align 8
  %67 = load i32, ptr %10, align 4
  %68 = add i32 %67, 2
  %69 = call ptr @proto_tree_add_item(ptr noundef %64, i32 noundef %65, ptr noundef %66, i32 noundef %68, i32 noundef 2, i32 noundef 0)
  %70 = load ptr, ptr %13, align 8
  %71 = load i32, ptr @hf_pcep_subobj_pksv4_pce_id, align 4
  %72 = load ptr, ptr %9, align 8
  %73 = load i32, ptr %10, align 4
  %74 = add i32 %73, 4
  %75 = call ptr @proto_tree_add_item(ptr noundef %70, i32 noundef %71, ptr noundef %72, i32 noundef %74, i32 noundef 4, i32 noundef 0)
  store i32 0, ptr %16, align 4
  br label %76

76:                                               ; preds = %33, %28
  call void @llvm.lifetime.end.p0(i64 2, ptr %15) #4
  call void @llvm.lifetime.end.p0(i64 8, ptr %14) #4
  call void @llvm.lifetime.end.p0(i64 8, ptr %13) #4
  %77 = load i32, ptr %16, align 4
  switch i32 %77, label %79 [
    i32 0, label %78
    i32 1, label %78
  ]

78:                                               ; preds = %76, %76
  ret void

79:                                               ; preds = %76
  unreachable
}