; Function Attrs: null_pointer_is_valid sspstrong uwtable
define internal fastcc void @dissect_subobj_pksv4(ptr noundef %0, ptr noundef %1, ptr noundef %2, i32 noundef %3, i32 noundef %4, i32 noundef range(i32 2, 256) %5) unnamed_addr #0 {
  %7 = load i32, ptr @hf_PCEPF_SUBOBJ_PKSv4, align 4
  %8 = tail call ptr @proto_tree_add_item(ptr noundef %0, i32 noundef %7, ptr noundef %2, i32 noundef %3, i32 noundef %5, i32 noundef 0)
  %9 = tail call ptr @proto_item_add_subtree(ptr noundef %8, i32 noundef %4)
  %.not = icmp eq i32 %5, 8
  br i1 %.not, label %12, label %10

10:                                               ; preds = %6
  %11 = tail call ptr (ptr, ptr, ptr, ptr, ...) @expert_add_info_format(ptr noundef %1, ptr noundef %8, ptr noundef nonnull @ei_pcep_subobject_bad_length, ptr noundef nonnull @.str.1163, i32 noundef %5)
  br label %31

12:                                               ; preds = %6
  %13 = add i32 %3, 2
  %14 = tail call zeroext i16 @tvb_get_ntohs(ptr noundef %2, i32 noundef %13)
  %15 = getelementptr inbounds nuw i8, ptr %1, i64 408
  %16 = load ptr, ptr %15, align 8
  %17 = add i32 %3, 4
  %18 = tail call ptr @tvb_address_to_str(ptr noundef %16, ptr noundef %2, i32 noundef 2, i32 noundef %17)
  %19 = zext i16 %14 to i32
  tail call void (ptr, ptr, ...) @proto_item_append_text(ptr noundef %8, ptr noundef nonnull @.str.1164, ptr noundef %18, i32 noundef %19)
  %20 = load i32, ptr @hf_pcep_subobj_pksv4_l, align 4
  %21 = tail call ptr @proto_tree_add_item(ptr noundef %9, i32 noundef %20, ptr noundef %2, i32 noundef %3, i32 noundef 1, i32 noundef 0)
  %22 = load i32, ptr @hf_PCEPF_SUBOBJ_7F, align 4
  %23 = tail call ptr @proto_tree_add_item(ptr noundef %9, i32 noundef %22, ptr noundef %2, i32 noundef %3, i32 noundef 1, i32 noundef 0)
  %24 = load i32, ptr @hf_pcep_subobj_pksv4_length, align 4
  %25 = add i32 %3, 1
  %26 = tail call ptr @proto_tree_add_item(ptr noundef %9, i32 noundef %24, ptr noundef %2, i32 noundef %25, i32 noundef 1, i32 noundef 0)
  %27 = load i32, ptr @hf_pcep_subobj_pksv4_path_key, align 4
  %28 = tail call ptr @proto_tree_add_item(ptr noundef %9, i32 noundef %27, ptr noundef %2, i32 noundef %13, i32 noundef 2, i32 noundef 0)
  %29 = load i32, ptr @hf_pcep_subobj_pksv4_pce_id, align 4
  %30 = tail call ptr @proto_tree_add_item(ptr noundef %9, i32 noundef %29, ptr noundef %2, i32 noundef %17, i32 noundef 4, i32 noundef 0)
  br label %31

31:                                               ; preds = %12, %10
  ret void
}